target datalayout = "e-m:e-p270:32:32-p271:32:32-p272:64:64-i64:64-i128:128-f80:128-n8:16:32:64-S128"
target triple = "x86_64-pc-linux-gnu"

@pmix_class_init_epoch = global i32 1, align 4
@classes = internal global ptr null, align 8
@num_classes = internal global i32 0, align 4
@max_classes = internal global i32 0, align 4

; Function Attrs: nounwind uwtable
define i32 @pmix_class_finalize() #0 {
  %1 = alloca i32, align 4
  call void @llvm.lifetime.start.p0(i64 4, ptr %1) #8
  %2 = load i32, ptr @pmix_class_init_epoch, align 4, !tbaa !8
  %3 = icmp eq i32 2147483647, %2
  br i1 %3, label %4, label %5

4:                                                ; preds = %0
  store i32 1, ptr @pmix_class_init_epoch, align 4, !tbaa !8
  br label %8

5:                                                ; preds = %0
  %6 = load i32, ptr @pmix_class_init_epoch, align 4, !tbaa !8
  %7 = add nsw i32 %6, 1
  store i32 %7, ptr @pmix_class_init_epoch, align 4, !tbaa !8
  br label %8

8:                                                ; preds = %5, %4
  %9 = load ptr, ptr @classes, align 8, !tbaa !22
  %10 = icmp ne ptr null, %9
  br i1 %10, label %11, label %35

11:                                               ; preds = %8
  store i32 0, ptr %1, align 4, !tbaa !8
  br label %12

12:                                               ; preds = %30, %11
  %13 = load i32, ptr %1, align 4, !tbaa !8
  %14 = load i32, ptr @num_classes, align 4, !tbaa !8
  %15 = icmp slt i32 %13, %14
  br i1 %15, label %16, label %33

16:                                               ; preds = %12
  %17 = load ptr, ptr @classes, align 8, !tbaa !22
  %18 = load i32, ptr %1, align 4, !tbaa !8
  %19 = sext i32 %18 to i64
  %20 = getelementptr inbounds ptr, ptr %17, i64 %19
  %21 = load ptr, ptr %20, align 8, !tbaa !22
  %22 = icmp ne ptr null, %21
  br i1 %22, label %23, label %29

23:                                               ; preds = %16
  %24 = load ptr, ptr @classes, align 8, !tbaa !22
  %25 = load i32, ptr %1, align 4, !tbaa !8
  %26 = sext i32 %25 to i64
  %27 = getelementptr inbounds ptr, ptr %24, i64 %26
  %28 = load ptr, ptr %27, align 8, !tbaa !22
  call void @free(ptr noundef %28) #8
  br label %29

29:                                               ; preds = %23, %16
  br label %30

30:                                               ; preds = %29
  %31 = load i32, ptr %1, align 4, !tbaa !8
  %32 = add nsw i32 %31, 1
  store i32 %32, ptr %1, align 4, !tbaa !8
  br label %12, !llvm.loop !24

33:                                               ; preds = %12
  %34 = load ptr, ptr @classes, align 8, !tbaa !22
  call void @free(ptr noundef %34) #8
  store ptr null, ptr @classes, align 8, !tbaa !22
  store i32 0, ptr @num_classes, align 4, !tbaa !8
  store i32 0, ptr @max_classes, align 4, !tbaa !8
  br label %35

35:                                               ; preds = %33, %8
  call void @llvm.lifetime.end.p0(i64 4, ptr %1) #8
  ret i32 0
}