; Function Attrs: nounwind uwtable
define noundef i32 @pmix_class_finalize() local_unnamed_addr #0 {
  %1 = load i32, ptr @pmix_class_init_epoch, align 4, !tbaa !3
  %2 = icmp eq i32 %1, 2147483647
  %3 = add nsw i32 %1, 1
  %storemerge = select i1 %2, i32 1, i32 %3
  store i32 %storemerge, ptr @pmix_class_init_epoch, align 4, !tbaa !3
  %4 = load ptr, ptr @classes, align 8, !tbaa !21
  %.not = icmp eq ptr %4, null
  br i1 %.not, label %11, label %.preheader

.preheader:                                       ; preds = %0
  %5 = load i32, ptr @num_classes, align 4, !tbaa !3
  %6 = icmp sgt i32 %5, 0
  br i1 %6, label %.lr.ph.preheader, label %._crit_edge

.lr.ph.preheader:                                 ; preds = %.preheader
  %wide.trip.count = zext nneg i32 %5 to i64
  br label %.lr.ph

.lr.ph:                                           ; preds = %.lr.ph.preheader, %10
  %indvars.iv = phi i64 [ 0, %.lr.ph.preheader ], [ %indvars.iv.next, %10 ]
  %7 = getelementptr inbounds nuw ptr, ptr %4, i64 %indvars.iv
  %8 = load ptr, ptr %7, align 8, !tbaa !21
  %.not6 = icmp eq ptr %8, null
  br i1 %.not6, label %10, label %9

9:                                                ; preds = %.lr.ph
  tail call void @free(ptr noundef nonnull %8) #9
  br label %10

10:                                               ; preds = %.lr.ph, %9
  %indvars.iv.next = add nuw nsw i64 %indvars.iv, 1
  %exitcond.not = icmp eq i64 %indvars.iv.next, %wide.trip.count
  br i1 %exitcond.not, label %._crit_edge, label %.lr.ph, !llvm.loop !23

._crit_edge:                                      ; preds = %10, %.preheader
  tail call void @free(ptr noundef nonnull %4) #9
  store ptr null, ptr @classes, align 8, !tbaa !21
  store i32 0, ptr @num_classes, align 4, !tbaa !3
  store i32 0, ptr @max_classes, align 4, !tbaa !3
  br label %11

11:                                               ; preds = %._crit_edge, %0
  ret i32 0
}